; Function Attrs: nounwind uwtable
define range(i32 0, 2) i32 @wolfSSL_CTX_up_ref(ptr noundef %0) local_unnamed_addr #0 {
  %2 = alloca i32, align 4
  call void @llvm.lifetime.start.p0(i64 4, ptr nonnull %2) #22
  %3 = getelementptr inbounds nuw i8, ptr %0, i64 8
  call void @wolfSSL_RefWithMutexInc(ptr noundef nonnull %3, ptr noundef nonnull %2) #22
  %4 = load i32, ptr %2, align 4, !tbaa !3
  %5 = icmp eq i32 %4, 0
  %6 = zext i1 %5 to i32
  call void @llvm.lifetime.end.p0(i64 4, ptr nonnull %2) #22
  ret i32 %6
}